(iHistory
History
p1
(dp2
S'queue'
p3
(lp4
sS'data'
p5
(dp6
S'012000002100000120000001000000000000000000'
p7
(I0
I1
tp8
sS'001000000000000000000000000000000000000000'
p9
(I0
I1
tp10
sS'012100002120000120000000000000000000000000'
p11
(I1
I1
tp12
sS'11111120002000000100000020000001000000000000000'
p13
(I2
I2
tp14
sS'121120021021000002000000100000000000000000'
p15
(I0
I2
tp16
sS'021100000120000001000000200000010000002000'
p17
(I0
I2
tp18
sS'002210000012000001000000000000000000000000'
p19
(I1
I1
tp20
sS'000112000020000001000000200000010000002000'
p21
(I1
I1
tp22
sS'112020002100000120000021000000200000010000'
p23
(I1
I1
tp24
sS'002200000010000000000000000000000000000000'
p25
(I0
I1
tp26
sS'101120000021000002000000000000000000000000'
p27
(I0
I2
tp28
sS'000110000020000001000000200000010000002000'
p29
(I0
I8
tp30
sS'012000002100000120000021000000200000010000'
p31
(I1
I1
tp32
sS'120100101020000002000000200000000000000000'
p33
(I1
I1
tp34
sS'120100100020000000000000000000000000000000'
p35
(I0
I1
tp36
sS'120100000020000000000000000000000000000000'
p37
(I1
I1
tp38
sS'002112000021000001100000220000010000002000'
p39
(I1
I1
tp40
sS'022111000020000001000000200000010000002000'
p41
(I0
I1
tp42
sS'121120000120000021000002100000000000000000'
p43
(I0
I1
tp44
sS'012000000100000000000000000000000000000000'
p45
(I0
I1
tp46
sS'121120000120000000000000000000000000000000'
p47
(I0
I1
tp48
sS'212210001112000021000000200000000000000000'
p49
(I1
I1
tp50
sS'121120000021000002000000100000000000000000'
p51
(I0
I2
tp52
sS'020100000020000001000000200000010000000000'
p53
(I0
I1
tp54
sS'012000002100000120000001000000200000010000'
p55
(I0
I1
tp56
sS'002112000120000021000001200000010000002000'
p57
(I1
I1
tp58
sS'021100000020000001000000200000010000000000'
p59
(I0
I3
tp60
sS'000100000020000001000000000000000000000000'
p61
(I1
I13
tp62
sS'021120000120000021000001200000010000002000'
p63
(I2
I2
tp64
sS'120100101020000002000000200000010000002000'
p65
(I1
I1
tp66
sS'101120000021000002000000100000020000000000'
p67
(I0
I1
tp68
sS'020110000020000001000000200000010000002000'
p69
(I0
I1
tp70
sS'001020000101000020100002020000201000010000'
p71
(I0
I1
tp72
sS'002111200020000001000000200000010000002000'
p73
(I2
I2
tp74
sS'012100002100000120000000000000000000000000'
p75
(I0
I1
tp76
sS'021100000120000021000000200000010000002000'
p77
(I2
I2
tp78
sS'001100000020000001000000200000010000002000'
p79
(I0
I3
tp80
sS'012000002100000100000000000000000000000000'
p81
(I0
I1
tp82
sS'000112000021000001000000200000010000002000'
p83
(I0
I1
tp84
sS'002110000120000001000000200000010000002000'
p85
(I0
I5
tp86
sS'121120101020000002000000100000020000000000'
p87
(I0
I1
tp88
sS'012000002100000120000001000000200000000000'
p89
(I1
I1
tp90
sS'002110000122000021000001200000010000002000'
p91
(I2
I2
tp92
sS'012100002100000000000000000000000000000000'
p93
(I0
I1
tp94
sS'001120000020000000000000000000000000000000'
p95
(I5
I5
tp96
sS'012100002100000020000000000000000000000000'
p97
(I1
I1
tp98
sS'021101000020000001000000200000010000002000'
p99
(I0
I1
tp100
sS'202210000012000001000000000000000000000000'
p101
(I0
I1
tp102
sS'012100002120000120000010000000000000000000'
p103
(I0
I1
tp104
sS'001020000100000020000000000000000000000000'
p105
(I1
I1
tp106
sS'212210000012000001000000000000000000000000'
p107
(I1
I1
tp108
sS'001020000101000020100002000000000000000000'
p109
(I0
I1
tp110
sS'012000000000000000000000000000000000000000'
p111
(I1
I1
tp112
sS'000100000020000001000000200000000000000000'
p113
(I12
I13
tp114
sS'101120000020000000000000000000000000000000'
p115
(I0
I2
tp116
sS'121120001021000002000000100000020000000000'
p117
(I0
I1
tp118
sS'212210000112000001000000200000000000000000'
p119
(I1
I1
tp120
sS'002112000021000001100000200000010000002000'
p121
(I0
I1
tp122
sS'000200000000000000000000000000000000000000'
p123
(I0
I1
tp124
sS'012110000120000021000000200000010000002000'
p125
(I0
I2
tp126
sS'002110000120000021000001200000010000002000'
p127
(I0
I3
tp128
sS'021100000020000000000000000000000000000000'
p129
(I2
I2
tp130
sS'021100001020000001000000200000010000002000'
p131
(I0
I3
tp132
sS'012100002000000000000000000000000000000000'
p133
(I1
I1
tp134
sS'002210000010000000000000000000000000000000'
p135
(I1
I1
tp136
sS'001020000101000020000000000000000000000000'
p137
(I0
I1
tp138
sS'121120021021000202000000100000000000000000'
p139
(I2
I2
tp140
sS'021121000021000001000000200000010000002000'
p141
(I0
I1
tp142
sS'212100002120000120000010000000000000000000'
p143
(I1
I1
tp144
sS'000200000010000000000000000000000000000000'
p145
(I1
I1
tp146
sS'022111100020000001000000200000010000002000'
p147
(I1
I1
tp148
sS'121120101020000002000000100000020000002000'
p149
(I1
I1
tp150
sS'002111200021000001000000200000010000002000'
p151
(I0
I2
tp152
sS'212100012120000120000012000000000000000000'
p153
(I1
I1
tp154
sS'001020000101000020100002020000200000010000'
p155
(I1
I1
tp156
sS'212210000112000021000000200000000000000000'
p157
(I0
I1
tp158
sS'002111000020000001000000200000010000002000'
p159
(I0
I2
tp160
sS'000100000020000001000000200000010000000000'
p161
(I1
I12
tp162
sS'121120000120000020000000000000000000000000'
p163
(I1
I1
tp164
sS'121120000120000021000002100000200000000000'
p165
(I1
I1
tp166
sS'010100002000000000000000000000000000000000'
p167
(I0
I1
tp168
sS'100100000020000000000000000000000000000000'
p169
(I0
I1
tp170
sS'001120000021000002000000100000020000000000'
p171
(I1
I1
tp172
sS'021100001220000201000010200000010000002000'
p173
(I3
I3
tp174
sS'001120000021000000000000000000000000000000'
p175
(I0
I3
tp176
sS'121120000020000000000000000000000000000000'
p177
(I2
I2
tp178
sS'121120000021000002000000100000020000000000'
p179
(I1
I1
tp180
sS'121120000120000021000002000000000000000000'
p181
(I1
I1
tp182
sS'120100101020000002000000000000000000000000'
p183
(I0
I1
tp184
sS'201020000101000020100002020000201000010000'
p185
(I1
I1
tp186
sS'021100000020000001000000000000000000000000'
p187
(I0
I2
tp188
sS'021100000120000021000001200000010000002000'
p189
(I0
I2
tp190
sS'121120020021000002000000100000000000000000'
p191
(I2
I2
tp192
sS'002110000020000001000000200000010000002000'
p193
(I7
I7
tp194
sS'121120000021000002000000000000000000000000'
p195
(I2
I2
tp196
sS'002112000021000001000000200000010000002000'
p197
(I1
I1
tp198
sS'001100000020000001000000200000000000000000'
p199
(I0
I1
tp200
sS'001020000101000020100002000000200000000000'
p201
(I1
I1
tp202
sS'1121112000200000010000002000000100000020000000000'
p203
(I2
I4
tp204
sS'010000000000000000000000000000000000000000'
p205
(I0
I2
tp206
sS'001100000020000000000000000000000000000000'
p207
(I0
I7
tp208
sS'120100101020000002000000200000010000000000'
p209
(I0
I1
tp210
sS'11111120002000000100000020000000000000000000000'
p211
(I0
I2
tp212
sS'121120001020000002000000100000020000000000'
p213
(I1
I1
tp214
sS'001020000100000000000000000000000000000000'
p215
(I0
I1
tp216
sS'021100000020000001000000200000000000000000'
p217
(I3
I3
tp218
sS'120102101020000102000000200000010000002000'
p219
(I1
I1
tp220
sS'121120001020000000000000000000000000000000'
p221
(I0
I1
tp222
sS'020111000020000001000000200000010000002000'
p223
(I1
I1
tp224
sS'121120000120000021000000000000000000000000'
p225
(I0
I1
tp226
sS'212100012120000120000010000000000000000000'
p227
(I0
I1
tp228
sS'000100000000000000000000000000000000000000'
p229
(I4
I24
tp230
sS'012000002100000120000000000000000000000000'
p231
(I1
I1
tp232
sS'121120001021000002000000100000020000002000'
p233
(I1
I1
tp234
sS'112000002100000120000021000000200000010000'
p235
(I0
I1
tp236
sS'121120001020000002000000100000000000000000'
p237
(I0
I1
tp238
sS'212210000012000001000000200000000000000000'
p239
(I0
I1
tp240
sS'120100100020000002000000000000000000000000'
p241
(I1
I1
tp242
sS'001120000021000002000000000000000000000000'
p243
(I3
I3
tp244
sS'121120001020000002000000000000000000000000'
p245
(I1
I1
tp246
sS'021100001020000201000010200000010000002000'
p247
(I0
I3
tp248
sS'001120000021000002000000100000000000000000'
p249
(I0
I1
tp250
sS'021100001020000201000000200000010000002000'
p251
(I3
I3
tp252
sS'000100000020000000000000000000000000000000'
p253
(I20
I21
tp254
sS'001020000101000020100002000000200000010000'
p255
(I0
I1
tp256
sS'212110000120000021000000200000010000002000'
p257
(I2
I2
tp258
sS'002111200021000001200000200000010000002000'
p259
(I2
I2
tp260
sS'120100101020000102000000200000010000002000'
p261
(I0
I1
tp262
sS'021100000020000001000000200000010000002000'
p263
(I6
I6
tp264
sS'001020000101000020000002000000000000000000'
p265
(I1
I1
tp266
sS'000100000020000001000000200000010000002000'
p267
(I11
I11
tp268
sS'002110000120000021000000200000010000002000'
p269
(I5
I5
tp270
sS'1111112000200000010000000000000000000000000000'
p271
(I2
I2
tp272
sS'021121000021000001200000200000010000002000'
p273
(I1
I1
tp274
sS'021121000020000001000000200000010000002000'
p275
(I1
I1
tp276
sS'010000002000000000000000000000000000000000'
p277
(I1
I1
tp278
sS'002210000012000000000000000000000000000000'
p279
(I0
I1
tp280
sS'1111112000200000000000000000000000000000000000'
p281
(I0
I2
tp282
sS'012000002100000000000000000000000000000000'
p283
(I1
I1
tp284
sS'001020000000000000000000000000000000000000'
p285
(I1
I1
tp286
sS'020110000020000001000000200000010000000000'
p287
(I1
I1
tp288
ssb.